; Function Attrs: mustprogress uwtable
define hidden void @_ZN5zxing23SimpleAdaptiveBinarizerC2ENS_3RefINS_15LuminanceSourceEEE(ptr noundef nonnull align 8 dereferenceable(122) %0, ptr noundef readonly captures(none) %1) unnamed_addr #0 align 2 personality ptr @__gxx_personality_v0 {
  %3 = alloca %"class.zxing::Ref", align 8
  %4 = load ptr, ptr %1, align 8, !tbaa !3
  %.not.i.i = icmp eq ptr %4, null
  br i1 %.not.i.i, label %_ZN5zxing3RefINS_15LuminanceSourceEEC2ERKS2_.exit, label %5

5:                                                ; preds = %2
  %6 = getelementptr inbounds nuw i8, ptr %4, i64 8
  %7 = load i32, ptr %6, align 8, !tbaa !9
  %8 = add i32 %7, 1
  store i32 %8, ptr %6, align 8, !tbaa !9
  br label %_ZN5zxing3RefINS_15LuminanceSourceEEC2ERKS2_.exit

_ZN5zxing3RefINS_15LuminanceSourceEEC2ERKS2_.exit: ; preds = %2, %5
  store ptr %4, ptr %3, align 8, !tbaa !3
  invoke void @_ZN5zxing24GlobalHistogramBinarizerC2ENS_3RefINS_15LuminanceSourceEEE(ptr noundef nonnull align 8 dereferenceable(121) %0, ptr noundef nonnull %3)
          to label %9 unwind label %21

9:                                                ; preds = %_ZN5zxing3RefINS_15LuminanceSourceEEC2ERKS2_.exit
  %10 = load ptr, ptr %3, align 8, !tbaa !3
  %.not.i = icmp eq ptr %10, null
  br i1 %.not.i, label %_ZN5zxing3RefINS_15LuminanceSourceEED2Ev.exit, label %11

11:                                               ; preds = %9
  %12 = getelementptr inbounds nuw i8, ptr %10, i64 8
  %13 = load i32, ptr %12, align 8, !tbaa !9
  %14 = add i32 %13, -1
  store i32 %14, ptr %12, align 8, !tbaa !9
  %15 = icmp eq i32 %14, 0
  br i1 %15, label %16, label %_ZN5zxing3RefINS_15LuminanceSourceEED2Ev.exit

16:                                               ; preds = %11
  store i32 -559026175, ptr %12, align 8, !tbaa !9
  %17 = load ptr, ptr %10, align 8, !tbaa !12
  %18 = getelementptr inbounds nuw i8, ptr %17, i64 8
  %19 = load ptr, ptr %18, align 8
  call void %19(ptr noundef nonnull align 8 dereferenceable(12) %10) #10
  br label %_ZN5zxing3RefINS_15LuminanceSourceEED2Ev.exit

_ZN5zxing3RefINS_15LuminanceSourceEED2Ev.exit:    ; preds = %9, %11, %16
  store ptr getelementptr inbounds nuw inrange(-16, 48) (i8, ptr @_ZTVN5zxing23SimpleAdaptiveBinarizerE, i64 16), ptr %0, align 8, !tbaa !12
  %20 = getelementptr inbounds nuw i8, ptr %0, i64 121
  store i8 0, ptr %20, align 1, !tbaa !14
  ret void

21:                                               ; preds = %_ZN5zxing3RefINS_15LuminanceSourceEEC2ERKS2_.exit
  %22 = landingpad { ptr, i32 }
          cleanup
  %23 = load ptr, ptr %3, align 8, !tbaa !3
  %.not.i2 = icmp eq ptr %23, null
  br i1 %.not.i2, label %_ZN5zxing3RefINS_15LuminanceSourceEED2Ev.exit3, label %24

24:                                               ; preds = %21
  %25 = getelementptr inbounds nuw i8, ptr %23, i64 8
  %26 = load i32, ptr %25, align 8, !tbaa !9
  %27 = add i32 %26, -1
  store i32 %27, ptr %25, align 8, !tbaa !9
  %28 = icmp eq i32 %27, 0
  br i1 %28, label %29, label %_ZN5zxing3RefINS_15LuminanceSourceEED2Ev.exit3

29:                                               ; preds = %24
  store i32 -559026175, ptr %25, align 8, !tbaa !9
  %30 = load ptr, ptr %23, align 8, !tbaa !12
  %31 = getelementptr inbounds nuw i8, ptr %30, i64 8
  %32 = load ptr, ptr %31, align 8
  call void %32(ptr noundef nonnull align 8 dereferenceable(12) %23) #10
  br label %_ZN5zxing3RefINS_15LuminanceSourceEED2Ev.exit3

_ZN5zxing3RefINS_15LuminanceSourceEED2Ev.exit3:   ; preds = %21, %24, %29
  resume { ptr, i32 } %22
}